; Function Attrs: mustprogress uwtable
define void @_ZN3gmx10TextWriter15ensureLineBreakEv(ptr noundef nonnull readonly align 8 captures(none) dereferenceable(8) %0) local_unnamed_addr #0 align 2 {
  %2 = load ptr, ptr %0, align 8, !tbaa !4
  %3 = getelementptr inbounds nuw i8, ptr %2, i64 32
  %4 = load i32, ptr %3, align 8, !tbaa !26
  %5 = icmp eq i32 %4, 0
  br i1 %5, label %6, label %7

6:                                                ; preds = %1
  tail call void @_ZN3gmx10TextWriter4Impl14writeRawStringEPKc(ptr noundef nonnull align 8 dereferenceable(41) %2, ptr noundef nonnull @.str)
  br label %7

7:                                                ; preds = %6, %1
  ret void
}